; Function Attrs: nounwind uwtable
define hidden i64 @ssl_max_seal_overhead(ptr noundef %0) local_unnamed_addr #0 {
  %2 = getelementptr inbounds nuw i8, ptr %0, i64 8
  %3 = load ptr, ptr %2, align 8, !tbaa !11
  %4 = load i8, ptr %3, align 8, !tbaa !38
  %.not = icmp eq i8 %4, 0
  %5 = getelementptr inbounds nuw i8, ptr %0, i64 80
  %6 = load ptr, ptr %5, align 8, !tbaa !40
  %7 = getelementptr inbounds nuw i8, ptr %6, i64 272
  %8 = load ptr, ptr %7, align 8, !tbaa !55
  %9 = tail call i64 @SSL_AEAD_CTX_max_overhead(ptr noundef %8) #4
  br i1 %.not, label %12, label %10

10:                                               ; preds = %1
  %11 = add i64 %9, 13
  br label %30

12:                                               ; preds = %1
  %13 = add i64 %9, 5
  %14 = load ptr, ptr %5, align 8, !tbaa !40
  %15 = getelementptr inbounds nuw i8, ptr %14, i64 272
  %16 = load ptr, ptr %15, align 8, !tbaa !55
  %.not.i = icmp eq ptr %16, null
  br i1 %.not.i, label %ssl_needs_record_splitting.exit.thread, label %17

17:                                               ; preds = %12
  %18 = tail call zeroext i16 @ssl3_protocol_version(ptr noundef nonnull %0) #4
  %19 = icmp ult i16 %18, 770
  br i1 %19, label %20, label %ssl_needs_record_splitting.exit.thread

20:                                               ; preds = %17
  %21 = getelementptr inbounds nuw i8, ptr %0, i64 268
  %22 = load i32, ptr %21, align 4, !tbaa !56
  %23 = and i32 %22, 256
  %.not4.i = icmp eq i32 %23, 0
  br i1 %.not4.i, label %ssl_needs_record_splitting.exit.thread, label %ssl_needs_record_splitting.exit

ssl_needs_record_splitting.exit:                  ; preds = %20
  %24 = load ptr, ptr %5, align 8, !tbaa !40
  %25 = getelementptr inbounds nuw i8, ptr %24, i64 272
  %26 = load ptr, ptr %25, align 8, !tbaa !55
  %27 = load ptr, ptr %26, align 8, !tbaa !57
  %28 = tail call i32 @SSL_CIPHER_is_block_cipher(ptr noundef %27) #4
  %.fr = freeze i32 %28
  %.not10 = icmp eq i32 %.fr, 0
  %29 = shl i64 %13, 1
  br i1 %.not10, label %ssl_needs_record_splitting.exit.thread, label %30

ssl_needs_record_splitting.exit.thread:           ; preds = %12, %17, %20, %ssl_needs_record_splitting.exit
  br label %30

30:                                               ; preds = %ssl_needs_record_splitting.exit.thread, %ssl_needs_record_splitting.exit, %10
  %.06 = phi i64 [ %11, %10 ], [ %13, %ssl_needs_record_splitting.exit.thread ], [ %29, %ssl_needs_record_splitting.exit ]
  ret i64 %.06
}